target datalayout = "e-m:e-p270:32:32-p271:32:32-p272:64:64-i64:64-i128:128-f80:128-n8:16:32:64-S128"
target triple = "x86_64-pc-linux-gnu"

%"class.std::_Function_base" = type { %"union.std::_Any_data", ptr }
%"union.std::_Any_data" = type { %"union.std::_Nocopy_types" }
%"union.std::_Nocopy_types" = type { { i64, i64 } }
%"class.llvm::StackSafetyGlobalInfo" = type { ptr, %"class.std::function.112", ptr, %"class.std::unique_ptr.115" }
%"class.std::function.112" = type { %"class.std::_Function_base", ptr }
%"class.std::unique_ptr.115" = type { %"struct.std::__uniq_ptr_data.116" }
%"struct.std::__uniq_ptr_data.116" = type { %"class.std::__uniq_ptr_impl.117" }
%"class.std::__uniq_ptr_impl.117" = type { %"class.std::tuple.118" }
%"class.std::tuple.118" = type { %"struct.std::_Tuple_impl.119" }
%"struct.std::_Tuple_impl.119" = type { %"struct.std::_Head_base.122" }
%"struct.std::_Head_base.122" = type { ptr }

; Function Attrs: mustprogress nounwind uwtable
define linkonce_odr hidden noundef nonnull align 8 dereferenceable(8) ptr @_ZNSt10_Head_baseILm0EPN4llvm21StackSafetyGlobalInfo6InfoTyELb0EE7_M_headERS4_(ptr noundef nonnull align 8 dereferenceable(8) %0) #1 comdat align 2 {
  %2 = alloca ptr, align 8
  store ptr %0, ptr %2, align 8
  %3 = load ptr, ptr %2, align 8
  %4 = getelementptr inbounds nuw %"struct.std::_Head_base.122", ptr %3, i32 0, i32 0
  ret ptr %4
}

; Function Attrs: mustprogress nounwind uwtable
define linkonce_odr hidden noundef nonnull align 8 dereferenceable(8) ptr @_ZNSt11_Tuple_implILm0EJPN4llvm21StackSafetyGlobalInfo6InfoTyESt14default_deleteIS2_EEE7_M_headERS6_(ptr noundef nonnull align 8 dereferenceable(8) %0) #1 comdat align 2 {
  %2 = alloca ptr, align 8
  store ptr %0, ptr %2, align 8
  %3 = load ptr, ptr %2, align 8
  %4 = call noundef nonnull align 8 dereferenceable(8) ptr @_ZNSt10_Head_baseILm0EPN4llvm21StackSafetyGlobalInfo6InfoTyELb0EE7_M_headERS4_(ptr noundef nonnull align 8 dereferenceable(8) %3) #2
  ret ptr %4
}

; Function Attrs: mustprogress nounwind uwtable
define linkonce_odr noundef nonnull align 8 dereferenceable(8) ptr @_ZSt12__get_helperILm0EPN4llvm21StackSafetyGlobalInfo6InfoTyEJSt14default_deleteIS2_EEERT0_RSt11_Tuple_implIXT_EJS6_DpT1_EE(ptr noundef nonnull align 8 dereferenceable(8) %0) #1 comdat {
  %2 = alloca ptr, align 8
  store ptr %0, ptr %2, align 8
  %3 = load ptr, ptr %2, align 8
  %4 = call noundef nonnull align 8 dereferenceable(8) ptr @_ZNSt11_Tuple_implILm0EJPN4llvm21StackSafetyGlobalInfo6InfoTyESt14default_deleteIS2_EEE7_M_headERS6_(ptr noundef nonnull align 8 dereferenceable(8) %3) #2
  ret ptr %4
}

; Function Attrs: mustprogress nounwind uwtable
define linkonce_odr hidden void @_ZNSt11_Tuple_implILm1EJSt14default_deleteIN4llvm21StackSafetyGlobalInfo6InfoTyEEEEC2EOS5_(ptr noundef nonnull align 1 dereferenceable(1) %0, ptr noundef nonnull align 1 dereferenceable(1) %1) unnamed_addr #1 comdat align 2 {
  %3 = alloca ptr, align 8
  %4 = alloca ptr, align 8
  store ptr %0, ptr %3, align 8
  store ptr %1, ptr %4, align 8
  ret void
}

; Function Attrs: mustprogress nounwind uwtable
define linkonce_odr noundef nonnull align 8 dereferenceable(8) ptr @_ZSt3getILm0EJPN4llvm21StackSafetyGlobalInfo6InfoTyESt14default_deleteIS2_EEERNSt13tuple_elementIXT_ESt5tupleIJDpT0_EEE4typeERSA_(ptr noundef nonnull align 8 dereferenceable(8) %0) #1 comdat {
  %2 = alloca ptr, align 8
  store ptr %0, ptr %2, align 8
  %3 = load ptr, ptr %2, align 8
  %4 = call noundef nonnull align 8 dereferenceable(8) ptr @_ZSt12__get_helperILm0EPN4llvm21StackSafetyGlobalInfo6InfoTyEJSt14default_deleteIS2_EEERT0_RSt11_Tuple_implIXT_EJS6_DpT1_EE(ptr noundef nonnull align 8 dereferenceable(8) %3) #2
  ret ptr %4
}

; Function Attrs: mustprogress nounwind uwtable
define linkonce_odr hidden void @_ZNSt11_Tuple_implILm0EJPN4llvm21StackSafetyGlobalInfo6InfoTyESt14default_deleteIS2_EEEC2EOS6_(ptr noundef nonnull align 8 dereferenceable(8) %0, ptr noundef nonnull align 8 dereferenceable(8) %1) unnamed_addr #1 comdat align 2 {
  %3 = alloca ptr, align 8
  %4 = alloca ptr, align 8
  store ptr %0, ptr %3, align 8
  store ptr %1, ptr %4, align 8
  %5 = load ptr, ptr %3, align 8
  %6 = load ptr, ptr %4, align 8
  call void @_ZNSt11_Tuple_implILm1EJSt14default_deleteIN4llvm21StackSafetyGlobalInfo6InfoTyEEEEC2EOS5_(ptr noundef nonnull align 1 dereferenceable(1) %5, ptr noundef nonnull align 1 dereferenceable(1) %6) #2
  %7 = load ptr, ptr %4, align 8
  call void @llvm.memcpy.p0.p0.i64(ptr align 8 %5, ptr align 8 %7, i64 8, i1 false)
  ret void
}

; Function Attrs: mustprogress nounwind uwtable
define linkonce_odr hidden noundef nonnull align 8 dereferenceable(8) ptr @_ZNSt15__uniq_ptr_implIN4llvm21StackSafetyGlobalInfo6InfoTyESt14default_deleteIS2_EE6_M_ptrEv(ptr noundef nonnull align 8 dereferenceable(8) %0) #1 comdat align 2 {
  %2 = alloca ptr, align 8
  store ptr %0, ptr %2, align 8
  %3 = load ptr, ptr %2, align 8
  %4 = getelementptr inbounds nuw %"class.std::__uniq_ptr_impl.117", ptr %3, i32 0, i32 0
  %5 = call noundef nonnull align 8 dereferenceable(8) ptr @_ZSt3getILm0EJPN4llvm21StackSafetyGlobalInfo6InfoTyESt14default_deleteIS2_EEERNSt13tuple_elementIXT_ESt5tupleIJDpT0_EEE4typeERSA_(ptr noundef nonnull align 8 dereferenceable(8) %4) #2
  ret ptr %5
}

; Function Attrs: mustprogress nounwind uwtable
define linkonce_odr hidden void @_ZNSt5tupleIJPN4llvm21StackSafetyGlobalInfo6InfoTyESt14default_deleteIS2_EEEC2EOS6_(ptr noundef nonnull align 8 dereferenceable(8) %0, ptr noundef nonnull align 8 dereferenceable(8) %1) unnamed_addr #1 comdat align 2 {
  %3 = alloca ptr, align 8
  %4 = alloca ptr, align 8
  store ptr %0, ptr %3, align 8
  store ptr %1, ptr %4, align 8
  %5 = load ptr, ptr %3, align 8
  %6 = load ptr, ptr %4, align 8
  call void @_ZNSt11_Tuple_implILm0EJPN4llvm21StackSafetyGlobalInfo6InfoTyESt14default_deleteIS2_EEEC2EOS6_(ptr noundef nonnull align 8 dereferenceable(8) %5, ptr noundef nonnull align 8 dereferenceable(8) %6) #2
  ret void
}

; Function Attrs: mustprogress nounwind uwtable
define linkonce_odr hidden void @_ZNSt15__uniq_ptr_implIN4llvm21StackSafetyGlobalInfo6InfoTyESt14default_deleteIS2_EEC2EOS5_(ptr noundef nonnull align 8 dereferenceable(8) %0, ptr noundef nonnull align 8 dereferenceable(8) %1) unnamed_addr #1 comdat align 2 {
  %3 = alloca ptr, align 8
  %4 = alloca ptr, align 8
  store ptr %0, ptr %3, align 8
  store ptr %1, ptr %4, align 8
  %5 = load ptr, ptr %3, align 8
  %6 = getelementptr inbounds nuw %"class.std::__uniq_ptr_impl.117", ptr %5, i32 0, i32 0
  %7 = load ptr, ptr %4, align 8
  %8 = getelementptr inbounds nuw %"class.std::__uniq_ptr_impl.117", ptr %7, i32 0, i32 0
  call void @_ZNSt5tupleIJPN4llvm21StackSafetyGlobalInfo6InfoTyESt14default_deleteIS2_EEEC2EOS6_(ptr noundef nonnull align 8 dereferenceable(8) %6, ptr noundef nonnull align 8 dereferenceable(8) %8) #2
  %9 = load ptr, ptr %4, align 8
  %10 = call noundef nonnull align 8 dereferenceable(8) ptr @_ZNSt15__uniq_ptr_implIN4llvm21StackSafetyGlobalInfo6InfoTyESt14default_deleteIS2_EE6_M_ptrEv(ptr noundef nonnull align 8 dereferenceable(8) %9) #2
  store ptr null, ptr %10, align 8
  ret void
}

; Function Attrs: mustprogress nounwind uwtable
define linkonce_odr hidden noundef zeroext i1 @_ZNKSt14_Function_base8_M_emptyEv(ptr noundef nonnull align 8 dereferenceable(24) %0) #1 comdat align 2 {
  %2 = alloca ptr, align 8
  store ptr %0, ptr %2, align 8
  %3 = load ptr, ptr %2, align 8
  %4 = getelementptr inbounds nuw %"class.std::_Function_base", ptr %3, i32 0, i32 1
  %5 = load ptr, ptr %4, align 8
  %6 = icmp ne ptr %5, null
  %7 = xor i1 %6, true
  ret i1 %7
}

; Function Attrs: mustprogress nounwind uwtable
define linkonce_odr hidden void @_ZNSt15__uniq_ptr_dataIN4llvm21StackSafetyGlobalInfo6InfoTyESt14default_deleteIS2_ELb1ELb1EEC2EOS5_(ptr noundef nonnull align 8 dereferenceable(8) %0, ptr noundef nonnull align 8 dereferenceable(8) %1) unnamed_addr #1 comdat align 2 {
  %3 = alloca ptr, align 8
  %4 = alloca ptr, align 8
  store ptr %0, ptr %3, align 8
  store ptr %1, ptr %4, align 8
  %5 = load ptr, ptr %3, align 8
  %6 = load ptr, ptr %4, align 8
  call void @_ZNSt15__uniq_ptr_implIN4llvm21StackSafetyGlobalInfo6InfoTyESt14default_deleteIS2_EEC2EOS5_(ptr noundef nonnull align 8 dereferenceable(8) %5, ptr noundef nonnull align 8 dereferenceable(8) %6) #2
  ret void
}

; Function Attrs: mustprogress nounwind uwtable
define linkonce_odr hidden noundef zeroext i1 @_ZNKSt8functionIFRKN4llvm15StackSafetyInfoERNS0_8FunctionEEEcvbEv(ptr noundef nonnull align 8 dereferenceable(32) %0) #1 comdat align 2 {
  %2 = alloca ptr, align 8
  store ptr %0, ptr %2, align 8
  %3 = load ptr, ptr %2, align 8
  %4 = call noundef zeroext i1 @_ZNKSt14_Function_base8_M_emptyEv(ptr noundef nonnull align 8 dereferenceable(24) %3)
  %5 = xor i1 %4, true
  ret i1 %5
}

; Function Attrs: mustprogress nounwind uwtable
define linkonce_odr hidden void @_ZNSt14_Function_baseC2Ev(ptr noundef nonnull align 8 dereferenceable(24) %0) unnamed_addr #1 comdat align 2 {
  %2 = alloca ptr, align 8
  store ptr %0, ptr %2, align 8
  %3 = load ptr, ptr %2, align 8
  %4 = getelementptr inbounds nuw %"class.std::_Function_base", ptr %3, i32 0, i32 0
  store ptr null, ptr %4, align 8
  %5 = getelementptr inbounds nuw %"class.std::_Function_base", ptr %3, i32 0, i32 1
  store ptr null, ptr %5, align 8
  ret void
}

; Function Attrs: mustprogress nounwind uwtable
define linkonce_odr hidden void @_ZNSt10unique_ptrIN4llvm21StackSafetyGlobalInfo6InfoTyESt14default_deleteIS2_EEC2EOS5_(ptr noundef nonnull align 8 dereferenceable(8) %0, ptr noundef nonnull align 8 dereferenceable(8) %1) unnamed_addr #1 comdat align 2 {
  %3 = alloca ptr, align 8
  %4 = alloca ptr, align 8
  store ptr %0, ptr %3, align 8
  store ptr %1, ptr %4, align 8
  %5 = load ptr, ptr %3, align 8
  %6 = getelementptr inbounds nuw %"class.std::unique_ptr.115", ptr %5, i32 0, i32 0
  %7 = load ptr, ptr %4, align 8
  %8 = getelementptr inbounds nuw %"class.std::unique_ptr.115", ptr %7, i32 0, i32 0
  call void @_ZNSt15__uniq_ptr_dataIN4llvm21StackSafetyGlobalInfo6InfoTyESt14default_deleteIS2_ELb1ELb1EEC2EOS5_(ptr noundef nonnull align 8 dereferenceable(8) %6, ptr noundef nonnull align 8 dereferenceable(8) %8) #2
  ret void
}

; Function Attrs: mustprogress nounwind uwtable
define linkonce_odr hidden void @_ZNSt8functionIFRKN4llvm15StackSafetyInfoERNS0_8FunctionEEEC2EOS7_(ptr noundef nonnull align 8 dereferenceable(32) %0, ptr noundef nonnull align 8 dereferenceable(32) %1) unnamed_addr #1 comdat align 2 {
  %3 = alloca ptr, align 8
  %4 = alloca ptr, align 8
  store ptr %0, ptr %3, align 8
  store ptr %1, ptr %4, align 8
  %5 = load ptr, ptr %3, align 8
  %6 = getelementptr inbounds i8, ptr %5, i64 0
  call void @llvm.memset.p0.i64(ptr align 8 %6, i8 0, i64 24, i1 false)
  call void @_ZNSt14_Function_baseC2Ev(ptr noundef nonnull align 8 dereferenceable(24) %5) #2
  %7 = getelementptr inbounds nuw %"class.std::function.112", ptr %5, i32 0, i32 1
  %8 = load ptr, ptr %4, align 8
  %9 = getelementptr inbounds nuw %"class.std::function.112", ptr %8, i32 0, i32 1
  %10 = load ptr, ptr %9, align 8
  store ptr %10, ptr %7, align 8
  %11 = load ptr, ptr %4, align 8
  %12 = call noundef zeroext i1 @_ZNKSt8functionIFRKN4llvm15StackSafetyInfoERNS0_8FunctionEEEcvbEv(ptr noundef nonnull align 8 dereferenceable(32) %11) #2
  br i1 %12, label %13, label %25

13:                                               ; preds = %2
  %14 = load ptr, ptr %4, align 8
  %15 = getelementptr inbounds nuw %"class.std::_Function_base", ptr %14, i32 0, i32 0
  %16 = getelementptr inbounds nuw %"class.std::_Function_base", ptr %5, i32 0, i32 0
  call void @llvm.memcpy.p0.p0.i64(ptr align 8 %16, ptr align 8 %15, i64 16, i1 false)
  %17 = load ptr, ptr %4, align 8
  %18 = getelementptr inbounds nuw %"class.std::_Function_base", ptr %17, i32 0, i32 1
  %19 = load ptr, ptr %18, align 8
  %20 = getelementptr inbounds nuw %"class.std::_Function_base", ptr %5, i32 0, i32 1
  store ptr %19, ptr %20, align 8
  %21 = load ptr, ptr %4, align 8
  %22 = getelementptr inbounds nuw %"class.std::_Function_base", ptr %21, i32 0, i32 1
  store ptr null, ptr %22, align 8
  %23 = load ptr, ptr %4, align 8
  %24 = getelementptr inbounds nuw %"class.std::function.112", ptr %23, i32 0, i32 1
  store ptr null, ptr %24, align 8
  br label %25

25:                                               ; preds = %13, %2
  ret void
}

; Function Attrs: mustprogress nounwind uwtable
define dso_local void @_ZN4llvm21StackSafetyGlobalInfoC2EOS0_(ptr noundef nonnull align 8 dereferenceable(56) %0, ptr noundef nonnull align 8 dereferenceable(56) %1) unnamed_addr #1 align 2 {
  %3 = alloca ptr, align 8
  %4 = alloca ptr, align 8
  store ptr %0, ptr %3, align 8
  store ptr %1, ptr %4, align 8
  %5 = load ptr, ptr %3, align 8
  %6 = getelementptr inbounds nuw %"class.llvm::StackSafetyGlobalInfo", ptr %5, i32 0, i32 0
  %7 = load ptr, ptr %4, align 8
  %8 = getelementptr inbounds nuw %"class.llvm::StackSafetyGlobalInfo", ptr %7, i32 0, i32 0
  %9 = load ptr, ptr %8, align 8
  store ptr %9, ptr %6, align 8
  %10 = getelementptr inbounds nuw %"class.llvm::StackSafetyGlobalInfo", ptr %5, i32 0, i32 1
  %11 = load ptr, ptr %4, align 8
  %12 = getelementptr inbounds nuw %"class.llvm::StackSafetyGlobalInfo", ptr %11, i32 0, i32 1
  call void @_ZNSt8functionIFRKN4llvm15StackSafetyInfoERNS0_8FunctionEEEC2EOS7_(ptr noundef nonnull align 8 dereferenceable(32) %10, ptr noundef nonnull align 8 dereferenceable(32) %12) #2
  %13 = getelementptr inbounds nuw %"class.llvm::StackSafetyGlobalInfo", ptr %5, i32 0, i32 2
  %14 = load ptr, ptr %4, align 8
  %15 = getelementptr inbounds nuw %"class.llvm::StackSafetyGlobalInfo", ptr %14, i32 0, i32 2
  %16 = load ptr, ptr %15, align 8
  store ptr %16, ptr %13, align 8
  %17 = getelementptr inbounds nuw %"class.llvm::StackSafetyGlobalInfo", ptr %5, i32 0, i32 3
  %18 = load ptr, ptr %4, align 8
  %19 = getelementptr inbounds nuw %"class.llvm::StackSafetyGlobalInfo", ptr %18, i32 0, i32 3
  call void @_ZNSt10unique_ptrIN4llvm21StackSafetyGlobalInfo6InfoTyESt14default_deleteIS2_EEC2EOS5_(ptr noundef nonnull align 8 dereferenceable(8) %17, ptr noundef nonnull align 8 dereferenceable(8) %19) #2
  ret void
}