; Function Attrs: mustprogress nofree norecurse nosync nounwind willreturn memory(argmem: readwrite) uwtable
define dso_local void @_ZN4llvm21StackSafetyGlobalInfoC2EOS0_(ptr noundef nonnull writeonly align 8 captures(none) dereferenceable(56) initializes((0, 56)) %0, ptr noundef nonnull align 8 captures(none) dereferenceable(56) %1) unnamed_addr #3 align 2 {
  %3 = load ptr, ptr %1, align 8
  store ptr %3, ptr %0, align 8
  %4 = getelementptr inbounds nuw i8, ptr %0, i64 8
  %5 = getelementptr inbounds nuw i8, ptr %0, i64 32
  %6 = getelementptr inbounds nuw i8, ptr %1, i64 32
  tail call void @llvm.memset.p0.i64(ptr noundef nonnull align 8 dereferenceable(32) %4, i8 0, i64 24, i1 false)
  %7 = load ptr, ptr %6, align 8
  store ptr %7, ptr %5, align 8
  %8 = getelementptr inbounds nuw i8, ptr %1, i64 24
  %9 = load ptr, ptr %8, align 8
  %.not.i.i.not.i = icmp eq ptr %9, null
  br i1 %.not.i.i.not.i, label %_ZNSt8functionIFRKN4llvm15StackSafetyInfoERNS0_8FunctionEEEC2EOS7_.exit, label %10

10:                                               ; preds = %2
  %11 = getelementptr inbounds nuw i8, ptr %1, i64 8
  %12 = getelementptr inbounds nuw i8, ptr %0, i64 24
  tail call void @llvm.memcpy.p0.p0.i64(ptr noundef nonnull align 8 dereferenceable(32) %4, ptr noundef nonnull align 8 dereferenceable(32) %11, i64 16, i1 false)
  %13 = load ptr, ptr %8, align 8
  store ptr %13, ptr %12, align 8
  tail call void @llvm.memset.p0.i64(ptr noundef nonnull align 8 dereferenceable(16) %8, i8 0, i64 16, i1 false)
  br label %_ZNSt8functionIFRKN4llvm15StackSafetyInfoERNS0_8FunctionEEEC2EOS7_.exit

_ZNSt8functionIFRKN4llvm15StackSafetyInfoERNS0_8FunctionEEEC2EOS7_.exit: ; preds = %2, %10
  %14 = getelementptr inbounds nuw i8, ptr %0, i64 40
  %15 = getelementptr inbounds nuw i8, ptr %1, i64 40
  %16 = load ptr, ptr %15, align 8
  store ptr %16, ptr %14, align 8
  %17 = getelementptr inbounds nuw i8, ptr %0, i64 48
  %18 = getelementptr inbounds nuw i8, ptr %1, i64 48
  %19 = load i64, ptr %18, align 8
  store i64 %19, ptr %17, align 8
  store ptr null, ptr %18, align 8
  ret void
}